target datalayout = "e-m:e-p270:32:32-p271:32:32-p272:64:64-i64:64-i128:128-f80:128-n8:16:32:64-S128"
target triple = "x86_64-pc-linux-gnu"

%struct.MemBuffer = type { i64, i64, i64, i64, ptr }
%struct.WebPDemuxer = type { %struct.MemBuffer, i32, i32, i32, i32, i32, i32, i32, i32, ptr, ptr, ptr, ptr }
%struct.Frame = type { i32, i32, i32, i32, i32, i32, i32, i32, i32, i32, [2 x %struct.ChunkData], ptr }
%struct.ChunkData = type { i64, i64 }

; Function Attrs: nounwind uwtable
define internal i32 @IsValidSimpleFormat(ptr noundef %0) #0 {
  %2 = alloca i32, align 4
  %3 = alloca ptr, align 8
  %4 = alloca ptr, align 8
  %5 = alloca i32, align 4
  store ptr %0, ptr %3, align 8, !tbaa !16
  call void @llvm.lifetime.start.p0(i64 8, ptr %4) #7
  %6 = load ptr, ptr %3, align 8, !tbaa !16
  %7 = getelementptr inbounds nuw %struct.WebPDemuxer, ptr %6, i32 0, i32 9
  %8 = load ptr, ptr %7, align 8, !tbaa !55
  store ptr %8, ptr %4, align 8, !tbaa !40
  %9 = load ptr, ptr %3, align 8, !tbaa !16
  %10 = getelementptr inbounds nuw %struct.WebPDemuxer, ptr %9, i32 0, i32 1
  %11 = load i32, ptr %10, align 8, !tbaa !25
  %12 = icmp eq i32 %11, 0
  br i1 %12, label %13, label %14

13:                                               ; preds = %1
  store i32 1, ptr %2, align 4
  store i32 1, ptr %5, align 4
  br label %46

14:                                               ; preds = %1
  %15 = load ptr, ptr %3, align 8, !tbaa !16
  %16 = getelementptr inbounds nuw %struct.WebPDemuxer, ptr %15, i32 0, i32 4
  %17 = load i32, ptr %16, align 4, !tbaa !43
  %18 = icmp sle i32 %17, 0
  br i1 %18, label %24, label %19

19:                                               ; preds = %14
  %20 = load ptr, ptr %3, align 8, !tbaa !16
  %21 = getelementptr inbounds nuw %struct.WebPDemuxer, ptr %20, i32 0, i32 5
  %22 = load i32, ptr %21, align 8, !tbaa !45
  %23 = icmp sle i32 %22, 0
  br i1 %23, label %24, label %25

24:                                               ; preds = %19, %14
  store i32 0, ptr %2, align 4
  store i32 1, ptr %5, align 4
  br label %46

25:                                               ; preds = %19
  %26 = load ptr, ptr %3, align 8, !tbaa !16
  %27 = getelementptr inbounds nuw %struct.WebPDemuxer, ptr %26, i32 0, i32 1
  %28 = load i32, ptr %27, align 8, !tbaa !25
  %29 = icmp eq i32 %28, 2
  br i1 %29, label %30, label %34

30:                                               ; preds = %25
  %31 = load ptr, ptr %4, align 8, !tbaa !40
  %32 = icmp eq ptr %31, null
  br i1 %32, label %33, label %34

33:                                               ; preds = %30
  store i32 0, ptr %2, align 4
  store i32 1, ptr %5, align 4
  br label %46

34:                                               ; preds = %30, %25
  %35 = load ptr, ptr %4, align 8, !tbaa !40
  %36 = getelementptr inbounds nuw %struct.Frame, ptr %35, i32 0, i32 2
  %37 = load i32, ptr %36, align 8, !tbaa !41
  %38 = icmp sle i32 %37, 0
  br i1 %38, label %44, label %39

39:                                               ; preds = %34
  %40 = load ptr, ptr %4, align 8, !tbaa !40
  %41 = getelementptr inbounds nuw %struct.Frame, ptr %40, i32 0, i32 3
  %42 = load i32, ptr %41, align 4, !tbaa !44
  %43 = icmp sle i32 %42, 0
  br i1 %43, label %44, label %45

44:                                               ; preds = %39, %34
  store i32 0, ptr %2, align 4
  store i32 1, ptr %5, align 4
  br label %46

45:                                               ; preds = %39
  store i32 1, ptr %2, align 4
  store i32 1, ptr %5, align 4
  br label %46

46:                                               ; preds = %45, %44, %33, %24, %13
  call void @llvm.lifetime.end.p0(i64 8, ptr %4) #7
  %47 = load i32, ptr %2, align 4
  ret i32 %47
}