; Function Attrs: mustprogress nofree norecurse nosync nounwind willreturn memory(read, inaccessiblemem: none) uwtable
define internal range(i32 0, 2) i32 @IsValidSimpleFormat(ptr noundef readonly captures(none) %0) #9 {
  %2 = getelementptr inbounds nuw i8, ptr %0, i64 72
  %3 = load ptr, ptr %2, align 8, !tbaa !50
  %4 = getelementptr inbounds nuw i8, ptr %0, i64 40
  %5 = load i32, ptr %4, align 8, !tbaa !13
  %6 = icmp eq i32 %5, 0
  br i1 %6, label %26, label %7

7:                                                ; preds = %1
  %8 = getelementptr inbounds nuw i8, ptr %0, i64 52
  %9 = load i32, ptr %8, align 4, !tbaa !22
  %10 = icmp slt i32 %9, 1
  br i1 %10, label %26, label %11

11:                                               ; preds = %7
  %12 = getelementptr inbounds nuw i8, ptr %0, i64 56
  %13 = load i32, ptr %12, align 8, !tbaa !23
  %14 = icmp slt i32 %13, 1
  br i1 %14, label %26, label %15

15:                                               ; preds = %11
  %16 = icmp eq i32 %5, 2
  %17 = icmp eq ptr %3, null
  %or.cond = select i1 %16, i1 %17, i1 false
  br i1 %or.cond, label %26, label %18

18:                                               ; preds = %15
  %19 = getelementptr inbounds nuw i8, ptr %3, i64 8
  %20 = load i32, ptr %19, align 8, !tbaa !33
  %21 = icmp slt i32 %20, 1
  br i1 %21, label %26, label %22

22:                                               ; preds = %18
  %23 = getelementptr inbounds nuw i8, ptr %3, i64 12
  %24 = load i32, ptr %23, align 4, !tbaa !36
  %25 = icmp sgt i32 %24, 0
  %spec.select = zext i1 %25 to i32
  br label %26

26:                                               ; preds = %22, %18, %15, %7, %11, %1
  %.0 = phi i32 [ 1, %1 ], [ 0, %11 ], [ 0, %7 ], [ 0, %15 ], [ 0, %18 ], [ %spec.select, %22 ]
  ret i32 %.0
}